target datalayout = "e-m:e-p270:32:32-p271:32:32-p272:64:64-i64:64-i128:128-f80:128-n8:16:32:64-S128"
target triple = "x86_64-pc-linux-gnu"

%"class.sat::literal" = type { i32 }
%"struct.nlsat::interval" = type { i8, %"class.sat::literal", ptr, %"class.algebraic_numbers::anum", %"class.algebraic_numbers::anum" }
%"class.algebraic_numbers::anum" = type { ptr }
%"class.nlsat::interval_set" = type { i32, i32, [0 x %"struct.nlsat::interval"] }

; Function Attrs: mustprogress uwtable
define hidden noundef zeroext i1 @_ZN5nlsat20interval_set_manager6set_eqEPKNS_12interval_setES3_(ptr noundef nonnull align 8 dereferenceable(28) %0, ptr noundef %1, ptr noundef %2) #6 align 2 {
  %4 = alloca i1, align 1
  %5 = alloca ptr, align 8
  %6 = alloca ptr, align 8
  %7 = alloca ptr, align 8
  store ptr %0, ptr %5, align 8, !tbaa !28
  store ptr %1, ptr %6, align 8, !tbaa !40
  store ptr %2, ptr %7, align 8, !tbaa !40
  %8 = load ptr, ptr %5, align 8
  %9 = load ptr, ptr %6, align 8, !tbaa !40
  %10 = icmp eq ptr %9, null
  br i1 %10, label %14, label %11

11:                                               ; preds = %3
  %12 = load ptr, ptr %7, align 8, !tbaa !40
  %13 = icmp eq ptr %12, null
  br i1 %13, label %14, label %18

14:                                               ; preds = %11, %3
  %15 = load ptr, ptr %6, align 8, !tbaa !40
  %16 = load ptr, ptr %7, align 8, !tbaa !40
  %17 = icmp eq ptr %15, %16
  store i1 %17, ptr %4, align 1
  br label %50

18:                                               ; preds = %11
  %19 = load ptr, ptr %6, align 8, !tbaa !40
  %20 = getelementptr inbounds nuw %"class.nlsat::interval_set", ptr %19, i32 0, i32 1
  %21 = load i32, ptr %20, align 4
  %22 = lshr i32 %21, 31
  %23 = icmp ne i32 %22, 0
  br i1 %23, label %30, label %24

24:                                               ; preds = %18
  %25 = load ptr, ptr %7, align 8, !tbaa !40
  %26 = getelementptr inbounds nuw %"class.nlsat::interval_set", ptr %25, i32 0, i32 1
  %27 = load i32, ptr %26, align 4
  %28 = lshr i32 %27, 31
  %29 = icmp ne i32 %28, 0
  br i1 %29, label %30, label %40

30:                                               ; preds = %24, %18
  %31 = load ptr, ptr %6, align 8, !tbaa !40
  %32 = getelementptr inbounds nuw %"class.nlsat::interval_set", ptr %31, i32 0, i32 1
  %33 = load i32, ptr %32, align 4
  %34 = lshr i32 %33, 31
  %35 = load ptr, ptr %7, align 8, !tbaa !40
  %36 = getelementptr inbounds nuw %"class.nlsat::interval_set", ptr %35, i32 0, i32 1
  %37 = load i32, ptr %36, align 4
  %38 = lshr i32 %37, 31
  %39 = icmp eq i32 %34, %38
  store i1 %39, ptr %4, align 1
  br label %50

40:                                               ; preds = %24
  %41 = load ptr, ptr %6, align 8, !tbaa !40
  %42 = load ptr, ptr %7, align 8, !tbaa !40
  %43 = call noundef zeroext i1 @_ZN5nlsat20interval_set_manager6subsetEPKNS_12interval_setES3_(ptr noundef nonnull align 8 dereferenceable(28) %8, ptr noundef %41, ptr noundef %42)
  br i1 %43, label %44, label %48

44:                                               ; preds = %40
  %45 = load ptr, ptr %7, align 8, !tbaa !40
  %46 = load ptr, ptr %6, align 8, !tbaa !40
  %47 = call noundef zeroext i1 @_ZN5nlsat20interval_set_manager6subsetEPKNS_12interval_setES3_(ptr noundef nonnull align 8 dereferenceable(28) %8, ptr noundef %45, ptr noundef %46)
  br label %48

48:                                               ; preds = %44, %40
  %49 = phi i1 [ false, %40 ], [ %47, %44 ]
  store i1 %49, ptr %4, align 1
  br label %50

50:                                               ; preds = %48, %30, %14
  %51 = load i1, ptr %4, align 1
  ret i1 %51
}