; Function Attrs: mustprogress uwtable
define hidden noundef zeroext i1 @_ZN5nlsat20interval_set_manager6set_eqEPKNS_12interval_setES3_(ptr noundef nonnull readonly align 8 captures(none) dereferenceable(28) %0, ptr noundef %1, ptr noundef %2) local_unnamed_addr #4 align 2 {
  %4 = icmp eq ptr %1, null
  %5 = icmp eq ptr %2, null
  %or.cond = or i1 %4, %5
  br i1 %or.cond, label %6, label %8

6:                                                ; preds = %3
  %7 = icmp eq ptr %1, %2
  br label %18

8:                                                ; preds = %3
  %9 = getelementptr inbounds nuw i8, ptr %1, i64 4
  %10 = load i32, ptr %9, align 4
  %.not = icmp sgt i32 %10, -1
  %11 = getelementptr inbounds nuw i8, ptr %2, i64 4
  %12 = load i32, ptr %11, align 4
  %.not17 = icmp sgt i32 %12, -1
  %or.cond18 = select i1 %.not, i1 %.not17, i1 false
  br i1 %or.cond18, label %14, label %._crit_edge

._crit_edge:                                      ; preds = %8
  %.unshifted = xor i32 %12, %10
  %13 = icmp sgt i32 %.unshifted, -1
  br label %18

14:                                               ; preds = %8
  %15 = tail call noundef zeroext i1 @_ZN5nlsat20interval_set_manager6subsetEPKNS_12interval_setES3_(ptr noundef nonnull align 8 dereferenceable(28) %0, ptr noundef nonnull %1, ptr noundef nonnull %2)
  br i1 %15, label %16, label %18

16:                                               ; preds = %14
  %17 = tail call noundef zeroext i1 @_ZN5nlsat20interval_set_manager6subsetEPKNS_12interval_setES3_(ptr noundef nonnull align 8 dereferenceable(28) %0, ptr noundef nonnull %2, ptr noundef nonnull %1)
  br label %18

18:                                               ; preds = %14, %16, %._crit_edge, %6
  %.0 = phi i1 [ %7, %6 ], [ %13, %._crit_edge ], [ false, %14 ], [ %17, %16 ]
  ret i1 %.0
}